target datalayout = "e-m:e-p270:32:32-p271:32:32-p272:64:64-i64:64-f80:128-n8:16:32:64-S128"
target triple = "x86_64-pc-linux-gnu"

@.str = private unnamed_addr constant [3 x i8] c"%d\00", align 1
@.str.1 = private unnamed_addr constant [10 x i8] c"%lf%lf%lf\00", align 1
@.str.2 = private unnamed_addr constant [47 x i8] c"(%.0lf,%.0lf,%.0lf)-(%.0lf,%.0lf,%.0lf)=%.2lf\0A\00", align 1

; Function Attrs: noinline nounwind uwtable
define dso_local i32 @main() #0 {
  %1 = alloca i32, align 4
  %2 = alloca i32, align 4
  %3 = alloca i32, align 4
  %4 = alloca i32, align 4
  %5 = alloca i32, align 4
  %6 = alloca i32, align 4
  %7 = alloca i32, align 4
  %8 = alloca [10 x double], align 16
  %9 = alloca [10 x double], align 16
  %10 = alloca [10 x double], align 16
  %11 = alloca double, align 8
  %12 = alloca [100 x double], align 16
  %13 = alloca [100 x double], align 16
  %14 = alloca [100 x i32], align 16
  %15 = alloca [100 x i32], align 16
  store i32 0, i32* %1, align 4
  %16 = call i32 (i8*, ...) @__isoc99_scanf(i8* getelementptr inbounds ([3 x i8], [3 x i8]* @.str, i64 0, i64 0), i32* %2)
  store i32 0, i32* %3, align 4
  br label %17

17:                                               ; preds = %33, %0
  %18 = load i32, i32* %3, align 4
  %19 = load i32, i32* %2, align 4
  %20 = sub nsw i32 %19, 1
  %21 = icmp sle i32 %18, %20
  br i1 %21, label %22, label %36

22:                                               ; preds = %17
  %23 = load i32, i32* %3, align 4
  %24 = sext i32 %23 to i64
  %25 = getelementptr inbounds [10 x double], [10 x double]* %8, i64 0, i64 %24
  %26 = load i32, i32* %3, align 4
  %27 = sext i32 %26 to i64
  %28 = getelementptr inbounds [10 x double], [10 x double]* %9, i64 0, i64 %27
  %29 = load i32, i32* %3, align 4
  %30 = sext i32 %29 to i64
  %31 = getelementptr inbounds [10 x double], [10 x double]* %10, i64 0, i64 %30
  %32 = call i32 (i8*, ...) @__isoc99_scanf(i8* getelementptr inbounds ([10 x i8], [10 x i8]* @.str.1, i64 0, i64 0), double* %25, double* %28, double* %31)
  br label %33

33:                                               ; preds = %22
  %34 = load i32, i32* %3, align 4
  %35 = add nsw i32 %34, 1
  store i32 %35, i32* %3, align 4
  br label %17

36:                                               ; preds = %17
  store i32 0, i32* %5, align 4
  store i32 0, i32* %3, align 4
  br label %37

37:                                               ; preds = %135, %36
  %38 = load i32, i32* %3, align 4
  %39 = load i32, i32* %2, align 4
  %40 = sub nsw i32 %39, 2
  %41 = icmp sle i32 %38, %40
  br i1 %41, label %42, label %138

42:                                               ; preds = %37
  %43 = load i32, i32* %3, align 4
  %44 = add nsw i32 %43, 1
  store i32 %44, i32* %4, align 4
  br label %45

45:                                               ; preds = %131, %42
  %46 = load i32, i32* %4, align 4
  %47 = load i32, i32* %2, align 4
  %48 = sub nsw i32 %47, 1
  %49 = icmp sle i32 %46, %48
  br i1 %49, label %50, label %134

50:                                               ; preds = %45
  %51 = load i32, i32* %3, align 4
  %52 = sext i32 %51 to i64
  %53 = getelementptr inbounds [10 x double], [10 x double]* %8, i64 0, i64 %52
  %54 = load double, double* %53, align 8
  %55 = load i32, i32* %4, align 4
  %56 = sext i32 %55 to i64
  %57 = getelementptr inbounds [10 x double], [10 x double]* %8, i64 0, i64 %56
  %58 = load double, double* %57, align 8
  %59 = fsub double %54, %58
  %60 = load i32, i32* %3, align 4
  %61 = sext i32 %60 to i64
  %62 = getelementptr inbounds [10 x double], [10 x double]* %8, i64 0, i64 %61
  %63 = load double, double* %62, align 8
  %64 = load i32, i32* %4, align 4
  %65 = sext i32 %64 to i64
  %66 = getelementptr inbounds [10 x double], [10 x double]* %8, i64 0, i64 %65
  %67 = load double, double* %66, align 8
  %68 = fsub double %63, %67
  %69 = fmul double %59, %68
  %70 = load i32, i32* %3, align 4
  %71 = sext i32 %70 to i64
  %72 = getelementptr inbounds [10 x double], [10 x double]* %9, i64 0, i64 %71
  %73 = load double, double* %72, align 8
  %74 = load i32, i32* %4, align 4
  %75 = sext i32 %74 to i64
  %76 = getelementptr inbounds [10 x double], [10 x double]* %9, i64 0, i64 %75
  %77 = load double, double* %76, align 8
  %78 = fsub double %73, %77
  %79 = load i32, i32* %3, align 4
  %80 = sext i32 %79 to i64
  %81 = getelementptr inbounds [10 x double], [10 x double]* %9, i64 0, i64 %80
  %82 = load double, double* %81, align 8
  %83 = load i32, i32* %4, align 4
  %84 = sext i32 %83 to i64
  %85 = getelementptr inbounds [10 x double], [10 x double]* %9, i64 0, i64 %84
  %86 = load double, double* %85, align 8
  %87 = fsub double %82, %86
  %88 = fmul double %78, %87
  %89 = fadd double %69, %88
  %90 = load i32, i32* %3, align 4
  %91 = sext i32 %90 to i64
  %92 = getelementptr inbounds [10 x double], [10 x double]* %10, i64 0, i64 %91
  %93 = load double, double* %92, align 8
  %94 = load i32, i32* %4, align 4
  %95 = sext i32 %94 to i64
  %96 = getelementptr inbounds [10 x double], [10 x double]* %10, i64 0, i64 %95
  %97 = load double, double* %96, align 8
  %98 = fsub double %93, %97
  %99 = load i32, i32* %3, align 4
  %100 = sext i32 %99 to i64
  %101 = getelementptr inbounds [10 x double], [10 x double]* %10, i64 0, i64 %100
  %102 = load double, double* %101, align 8
  %103 = load i32, i32* %4, align 4
  %104 = sext i32 %103 to i64
  %105 = getelementptr inbounds [10 x double], [10 x double]* %10, i64 0, i64 %104
  %106 = load double, double* %105, align 8
  %107 = fsub double %102, %106
  %108 = fmul double %98, %107
  %109 = fadd double %89, %108
  %110 = call double @sqrt(double %109) #3
  %111 = load i32, i32* %5, align 4
  %112 = sext i32 %111 to i64
  %113 = getelementptr inbounds [100 x double], [100 x double]* %12, i64 0, i64 %112
  store double %110, double* %113, align 8
  %114 = load i32, i32* %3, align 4
  %115 = load i32, i32* %5, align 4
  %116 = sext i32 %115 to i64
  %117 = getelementptr inbounds [100 x i32], [100 x i32]* %14, i64 0, i64 %116
  store i32 %114, i32* %117, align 4
  %118 = load i32, i32* %4, align 4
  %119 = load i32, i32* %5, align 4
  %120 = sext i32 %119 to i64
  %121 = getelementptr inbounds [100 x i32], [100 x i32]* %15, i64 0, i64 %120
  store i32 %118, i32* %121, align 4
  %122 = load i32, i32* %5, align 4
  %123 = sext i32 %122 to i64
  %124 = getelementptr inbounds [100 x double], [100 x double]* %12, i64 0, i64 %123
  %125 = load double, double* %124, align 8
  %126 = load i32, i32* %5, align 4
  %127 = sext i32 %126 to i64
  %128 = getelementptr inbounds [100 x double], [100 x double]* %13, i64 0, i64 %127
  store double %125, double* %128, align 8
  %129 = load i32, i32* %5, align 4
  %130 = add nsw i32 %129, 1
  store i32 %130, i32* %5, align 4
  br label %131

131:                                              ; preds = %50
  %132 = load i32, i32* %4, align 4
  %133 = add nsw i32 %132, 1
  store i32 %133, i32* %4, align 4
  br label %45

134:                                              ; preds = %45
  br label %135

135:                                              ; preds = %134
  %136 = load i32, i32* %3, align 4
  %137 = add nsw i32 %136, 1
  store i32 %137, i32* %3, align 4
  br label %37

138:                                              ; preds = %37
  store i32 0, i32* %3, align 4
  br label %139

139:                                              ; preds = %183, %138
  %140 = load i32, i32* %3, align 4
  %141 = load i32, i32* %5, align 4
  %142 = sub nsw i32 %141, 2
  %143 = icmp sle i32 %140, %142
  br i1 %143, label %144, label %186

144:                                              ; preds = %139
  %145 = load i32, i32* %3, align 4
  %146 = add nsw i32 %145, 1
  store i32 %146, i32* %4, align 4
  br label %147

147:                                              ; preds = %179, %144
  %148 = load i32, i32* %4, align 4
  %149 = load i32, i32* %5, align 4
  %150 = sub nsw i32 %149, 1
  %151 = icmp sle i32 %148, %150
  br i1 %151, label %152, label %182

152:                                              ; preds = %147
  %153 = load i32, i32* %3, align 4
  %154 = sext i32 %153 to i64
  %155 = getelementptr inbounds [100 x double], [100 x double]* %13, i64 0, i64 %154
  %156 = load double, double* %155, align 8
  %157 = load i32, i32* %4, align 4
  %158 = sext i32 %157 to i64
  %159 = getelementptr inbounds [100 x double], [100 x double]* %13, i64 0, i64 %158
  %160 = load double, double* %159, align 8
  %161 = fcmp olt double %156, %160
  br i1 %161, label %162, label %178

162:                                              ; preds = %152
  %163 = load i32, i32* %3, align 4
  %164 = sext i32 %163 to i64
  %165 = getelementptr inbounds [100 x double], [100 x double]* %13, i64 0, i64 %164
  %166 = load double, double* %165, align 8
  store double %166, double* %11, align 8
  %167 = load i32, i32* %4, align 4
  %168 = sext i32 %167 to i64
  %169 = getelementptr inbounds [100 x double], [100 x double]* %13, i64 0, i64 %168
  %170 = load double, double* %169, align 8
  %171 = load i32, i32* %3, align 4
  %172 = sext i32 %171 to i64
  %173 = getelementptr inbounds [100 x double], [100 x double]* %13, i64 0, i64 %172
  store double %170, double* %173, align 8
  %174 = load double, double* %11, align 8
  %175 = load i32, i32* %4, align 4
  %176 = sext i32 %175 to i64
  %177 = getelementptr inbounds [100 x double], [100 x double]* %13, i64 0, i64 %176
  store double %174, double* %177, align 8
  br label %178

178:                                              ; preds = %162, %152
  br label %179

179:                                              ; preds = %178
  %180 = load i32, i32* %4, align 4
  %181 = add nsw i32 %180, 1
  store i32 %181, i32* %4, align 4
  br label %147

182:                                              ; preds = %147
  br label %183

183:                                              ; preds = %182
  %184 = load i32, i32* %3, align 4
  %185 = add nsw i32 %184, 1
  store i32 %185, i32* %3, align 4
  br label %139

186:                                              ; preds = %139
  store i32 0, i32* %3, align 4
  br label %187

187:                                              ; preds = %264, %186
  %188 = load i32, i32* %3, align 4
  %189 = load i32, i32* %5, align 4
  %190 = sub nsw i32 %189, 1
  %191 = icmp sle i32 %188, %190
  br i1 %191, label %192, label %267

192:                                              ; preds = %187
  store i32 0, i32* %4, align 4
  br label %193

193:                                              ; preds = %260, %192
  %194 = load i32, i32* %4, align 4
  %195 = load i32, i32* %5, align 4
  %196 = sub nsw i32 %195, 1
  %197 = icmp sle i32 %194, %196
  br i1 %197, label %198, label %263

198:                                              ; preds = %193
  %199 = load i32, i32* %3, align 4
  %200 = sext i32 %199 to i64
  %201 = getelementptr inbounds [100 x double], [100 x double]* %13, i64 0, i64 %200
  %202 = load double, double* %201, align 8
  %203 = load i32, i32* %4, align 4
  %204 = sext i32 %203 to i64
  %205 = getelementptr inbounds [100 x double], [100 x double]* %12, i64 0, i64 %204
  %206 = load double, double* %205, align 8
  %207 = fcmp oeq double %202, %206
  br i1 %207, label %208, label %259

208:                                              ; preds = %198
  %209 = load i32, i32* %4, align 4
  %210 = sext i32 %209 to i64
  %211 = getelementptr inbounds [100 x i32], [100 x i32]* %14, i64 0, i64 %210
  %212 = load i32, i32* %211, align 4
  %213 = sext i32 %212 to i64
  %214 = getelementptr inbounds [10 x double], [10 x double]* %8, i64 0, i64 %213
  %215 = load double, double* %214, align 8
  %216 = load i32, i32* %4, align 4
  %217 = sext i32 %216 to i64
  %218 = getelementptr inbounds [100 x i32], [100 x i32]* %14, i64 0, i64 %217
  %219 = load i32, i32* %218, align 4
  %220 = sext i32 %219 to i64
  %221 = getelementptr inbounds [10 x double], [10 x double]* %9, i64 0, i64 %220
  %222 = load double, double* %221, align 8
  %223 = load i32, i32* %4, align 4
  %224 = sext i32 %223 to i64
  %225 = getelementptr inbounds [100 x i32], [100 x i32]* %14, i64 0, i64 %224
  %226 = load i32, i32* %225, align 4
  %227 = sext i32 %226 to i64
  %228 = getelementptr inbounds [10 x double], [10 x double]* %10, i64 0, i64 %227
  %229 = load double, double* %228, align 8
  %230 = load i32, i32* %4, align 4
  %231 = sext i32 %230 to i64
  %232 = getelementptr inbounds [100 x i32], [100 x i32]* %15, i64 0, i64 %231
  %233 = load i32, i32* %232, align 4
  %234 = sext i32 %233 to i64
  %235 = getelementptr inbounds [10 x double], [10 x double]* %8, i64 0, i64 %234
  %236 = load double, double* %235, align 8
  %237 = load i32, i32* %4, align 4
  %238 = sext i32 %237 to i64
  %239 = getelementptr inbounds [100 x i32], [100 x i32]* %15, i64 0, i64 %238
  %240 = load i32, i32* %239, align 4
  %241 = sext i32 %240 to i64
  %242 = getelementptr inbounds [10 x double], [10 x double]* %9, i64 0, i64 %241
  %243 = load double, double* %242, align 8
  %244 = load i32, i32* %4, align 4
  %245 = sext i32 %244 to i64
  %246 = getelementptr inbounds [100 x i32], [100 x i32]* %15, i64 0, i64 %245
  %247 = load i32, i32* %246, align 4
  %248 = sext i32 %247 to i64
  %249 = getelementptr inbounds [10 x double], [10 x double]* %10, i64 0, i64 %248
  %250 = load double, double* %249, align 8
  %251 = load i32, i32* %3, align 4
  %252 = sext i32 %251 to i64
  %253 = getelementptr inbounds [100 x double], [100 x double]* %13, i64 0, i64 %252
  %254 = load double, double* %253, align 8
  %255 = call i32 (i8*, ...) @printf(i8* getelementptr inbounds ([47 x i8], [47 x i8]* @.str.2, i64 0, i64 0), double %215, double %222, double %229, double %236, double %243, double %250, double %254)
  %256 = load i32, i32* %4, align 4
  %257 = sext i32 %256 to i64
  %258 = getelementptr inbounds [100 x double], [100 x double]* %12, i64 0, i64 %257
  store double -1.000000e+00, double* %258, align 8
  br label %259

259:                                              ; preds = %208, %198
  br label %260

260:                                              ; preds = %259
  %261 = load i32, i32* %4, align 4
  %262 = add nsw i32 %261, 1
  store i32 %262, i32* %4, align 4
  br label %193

263:                                              ; preds = %193
  br label %264

264:                                              ; preds = %263
  %265 = load i32, i32* %3, align 4
  %266 = add nsw i32 %265, 1
  store i32 %266, i32* %3, align 4
  br label %187

267:                                              ; preds = %187
  ret i32 0
}